; Function Attrs: mustprogress nofree norecurse nosync nounwind willreturn memory(argmem: readwrite) uwtable
define hidden void @_ZN10JavaThread22dec_held_monitor_countElb(ptr nocapture noundef nonnull align 8 dereferenceable(1800) %0, i64 noundef %1, i1 noundef zeroext %2) local_unnamed_addr #12 align 2 {
  %4 = getelementptr inbounds i8, ptr %0, i64 1360
  %5 = load i64, ptr %4, align 8
  %6 = sub nsw i64 %5, %1
  store i64 %6, ptr %4, align 8
  br i1 %2, label %7, label %11

7:                                                ; preds = %3
  %8 = getelementptr inbounds i8, ptr %0, i64 1368
  %9 = load i64, ptr %8, align 8
  %10 = sub nsw i64 %9, %1
  store i64 %10, ptr %8, align 8
  br label %11

11:                                               ; preds = %7, %3
  ret void
}